target datalayout = "e-m:e-p270:32:32-p271:32:32-p272:64:64-i64:64-i128:128-f80:128-n8:16:32:64-S128"
target triple = "x86_64-pc-linux-gnu"

%struct.slurm_conf_t = type { i64, ptr, i16, ptr, ptr, ptr, ptr, ptr, i16, ptr, ptr, ptr, ptr, ptr, ptr, ptr, i16, ptr, ptr, ptr, ptr, i16, ptr, ptr, ptr, i64, ptr, ptr, ptr, ptr, i16, ptr, ptr, i16, i32, ptr, i32, ptr, i32, i32, ptr, ptr, i64, i64, ptr, i16, i16, ptr, i32, i32, ptr, i32, ptr, i32, i16, i16, i16, ptr, i16, i16, ptr, ptr, i32, i16, i16, ptr, i32, i16, ptr, ptr, ptr, ptr, i16, ptr, ptr, ptr, ptr, i32, ptr, ptr, ptr, ptr, i16, i16, ptr, i32, i32, i32, i16, i16, ptr, ptr, i16, ptr, ptr, i32, i32, i32, i32, i32, i64, i32, i32, i16, ptr, ptr, i32, ptr, ptr, ptr, i16, i32, ptr, ptr, i16, ptr, ptr, i32, i16, ptr, ptr, ptr, ptr, i32, i32, i16, i16, i32, ptr, i16, ptr, i32, i32, i32, i32, i32, i32, ptr, i16, ptr, ptr, i32, i16, ptr, i32, i16, i16, ptr, ptr, ptr, i16, ptr, ptr, ptr, ptr, i16, i16, ptr, i16, ptr, i16, ptr, i16, ptr, i16, ptr, ptr, ptr, ptr, i16, ptr, ptr, ptr, i32, ptr, i32, ptr, ptr, i16, ptr, ptr, i32, i16, ptr, ptr, i16, i16, ptr, i16, ptr, ptr, ptr, i32, ptr, i16, i16, ptr, ptr, ptr, ptr, ptr, ptr, ptr, ptr, i16, i32, i16, ptr, ptr, ptr, ptr, i32, ptr, ptr, ptr, i16, ptr, ptr, ptr, i16, ptr, i16, ptr, i16, i16, ptr }
%struct.plugin_context_t = type { ptr, ptr, ptr }

@slurm_conf = external global %struct.slurm_conf_t, align 8
@.str.10 = private unnamed_addr constant [5 x i8] c"fini\00", align 1
@.str.13 = private unnamed_addr constant [36 x i8] c"plugin_context_create: no uler type\00", align 1
@.str.14 = private unnamed_addr constant [38 x i8] c"plugin_context_create: no plugin type\00", align 1
@.str.15 = private unnamed_addr constant [54 x i8] c"plugin_context_create: no symbols given for plugin %s\00", align 1
@.str.16 = private unnamed_addr constant [51 x i8] c"plugin_context_create: no ptrs given for plugin %s\00", align 1
@.str.17 = private unnamed_addr constant [9 x i8] c"plugin.c\00", align 1
@__func__.plugin_context_create = private unnamed_addr constant [22 x i8] c"plugin_context_create\00", align 1
@.str.18 = private unnamed_addr constant [47 x i8] c"Couldn't load specified plugin name for %s: %s\00", align 1
@.str.19 = private unnamed_addr constant [68 x i8] c"Couldn't find the specified plugin name for %s looking at all files\00", align 1
@.str.20 = private unnamed_addr constant [29 x i8] c"cannot find %s plugin for %s\00", align 1
@.str.21 = private unnamed_addr constant [30 x i8] c"incomplete %s plugin detected\00", align 1

; Function Attrs: nounwind uwtable
define dso_local void @plugin_unload(ptr noundef %0) #0 {
  %2 = alloca ptr, align 8
  %3 = alloca ptr, align 8
  store ptr %0, ptr %2, align 8
  call void @llvm.lifetime.start.p0(i64 8, ptr %3) #7
  %4 = load ptr, ptr %2, align 8
  %5 = icmp ne ptr %4, null
  br i1 %5, label %6, label %15

6:                                                ; preds = %1
  %7 = load ptr, ptr %2, align 8
  %8 = call ptr @dlsym(ptr noundef %7, ptr noundef @.str.10) #7
  store ptr %8, ptr %3, align 8
  %9 = icmp ne ptr %8, null
  br i1 %9, label %10, label %12

10:                                               ; preds = %6
  %11 = load ptr, ptr %3, align 8
  call void %11()
  br label %12

12:                                               ; preds = %10, %6
  %13 = load ptr, ptr %2, align 8
  %14 = call i32 @dlclose(ptr noundef %13) #7
  br label %15

15:                                               ; preds = %12, %1
  call void @llvm.lifetime.end.p0(i64 8, ptr %3) #7
  ret void
}

; Function Attrs: nounwind uwtable
define dso_local i32 @plugin_context_destroy(ptr noundef %0) #0 {
  %2 = alloca ptr, align 8
  %3 = alloca i32, align 4
  store ptr %0, ptr %2, align 8
  call void @llvm.lifetime.start.p0(i64 4, ptr %3) #7
  store i32 0, ptr %3, align 4
  %4 = load ptr, ptr %2, align 8
  %5 = getelementptr inbounds nuw %struct.plugin_context_t, ptr %4, i32 0, i32 1
  %6 = load ptr, ptr %5, align 8
  %7 = icmp ne ptr %6, null
  br i1 %7, label %8, label %16

8:                                                ; preds = %1
  %9 = load ptr, ptr %2, align 8
  %10 = getelementptr inbounds nuw %struct.plugin_context_t, ptr %9, i32 0, i32 1
  %11 = load ptr, ptr %10, align 8
  %12 = call i32 @plugrack_destroy(ptr noundef %11)
  %13 = icmp ne i32 %12, 0
  br i1 %13, label %14, label %15

14:                                               ; preds = %8
  store i32 -1, ptr %3, align 4
  br label %15

15:                                               ; preds = %14, %8
  br label %20

16:                                               ; preds = %1
  %17 = load ptr, ptr %2, align 8
  %18 = getelementptr inbounds nuw %struct.plugin_context_t, ptr %17, i32 0, i32 0
  %19 = load ptr, ptr %18, align 8
  call void @plugin_unload(ptr noundef %19)
  br label %20

20:                                               ; preds = %16, %15
  %21 = load ptr, ptr %2, align 8
  %22 = getelementptr inbounds nuw %struct.plugin_context_t, ptr %21, i32 0, i32 2
  call void @slurm_xfree(ptr noundef %22)
  call void @slurm_xfree(ptr noundef %2)
  %23 = load i32, ptr %3, align 4
  call void @llvm.lifetime.end.p0(i64 4, ptr %3) #7
  ret i32 %23
}

; Function Attrs: nounwind uwtable
define dso_local ptr @plugin_context_create(ptr noundef %0, ptr noundef %1, ptr noundef %2, ptr noundef %3, i64 noundef %4) #0 {
  %6 = alloca ptr, align 8
  %7 = alloca ptr, align 8
  %8 = alloca ptr, align 8
  %9 = alloca ptr, align 8
  %10 = alloca ptr, align 8
  %11 = alloca i64, align 8
  %12 = alloca ptr, align 8
  %13 = alloca i32, align 4
  %14 = alloca i32, align 4
  store ptr %0, ptr %7, align 8
  store ptr %1, ptr %8, align 8
  store ptr %2, ptr %9, align 8
  store ptr %3, ptr %10, align 8
  store i64 %4, ptr %11, align 8
  call void @llvm.lifetime.start.p0(i64 8, ptr %12) #7
  call void @llvm.lifetime.start.p0(i64 4, ptr %13) #7
  %15 = load ptr, ptr %8, align 8
  %16 = icmp ne ptr %15, null
  br i1 %16, label %28, label %17

17:                                               ; preds = %5
  br label %18

18:                                               ; preds = %17
  br label %19

19:                                               ; preds = %18
  %20 = call i32 @get_log_level()
  %21 = icmp sge i32 %20, 7
  br i1 %21, label %22, label %23

22:                                               ; preds = %19
  call void (i32, ptr, ...) @log_var(i32 noundef 7, ptr noundef @.str.13)
  br label %23

23:                                               ; preds = %22, %19
  br label %24

24:                                               ; preds = %23
  br label %25

25:                                               ; preds = %24
  br label %26

26:                                               ; preds = %25
  br label %27

27:                                               ; preds = %26
  store ptr null, ptr %6, align 8
  store i32 1, ptr %14, align 4
  br label %152

28:                                               ; preds = %5
  %29 = load ptr, ptr %7, align 8
  %30 = icmp ne ptr %29, null
  br i1 %30, label %42, label %31

31:                                               ; preds = %28
  br label %32

32:                                               ; preds = %31
  br label %33

33:                                               ; preds = %32
  %34 = call i32 @get_log_level()
  %35 = icmp sge i32 %34, 7
  br i1 %35, label %36, label %37

36:                                               ; preds = %33
  call void (i32, ptr, ...) @log_var(i32 noundef 7, ptr noundef @.str.14)
  br label %37

37:                                               ; preds = %36, %33
  br label %38

38:                                               ; preds = %37
  br label %39

39:                                               ; preds = %38
  br label %40

40:                                               ; preds = %39
  br label %41

41:                                               ; preds = %40
  store ptr null, ptr %6, align 8
  store i32 1, ptr %14, align 4
  br label %152

42:                                               ; preds = %28
  %43 = load ptr, ptr %10, align 8
  %44 = icmp ne ptr %43, null
  br i1 %44, label %48, label %45

45:                                               ; preds = %42
  %46 = load ptr, ptr %7, align 8
  %47 = call i32 (ptr, ...) @error(ptr noundef @.str.15, ptr noundef %46)
  store ptr null, ptr %6, align 8
  store i32 1, ptr %14, align 4
  br label %152

48:                                               ; preds = %42
  %49 = load ptr, ptr %9, align 8
  %50 = icmp ne ptr %49, null
  br i1 %50, label %54, label %51

51:                                               ; preds = %48
  %52 = load ptr, ptr %7, align 8
  %53 = call i32 (ptr, ...) @error(ptr noundef @.str.16, ptr noundef %52)
  store ptr null, ptr %6, align 8
  store i32 1, ptr %14, align 4
  br label %152

54:                                               ; preds = %48
  br label %55

55:                                               ; preds = %54
  br label %56

56:                                               ; preds = %55
  br label %57

57:                                               ; preds = %56
  %58 = call ptr @slurm_xcalloc(i64 noundef 1, i64 noundef 24, i1 noundef zeroext true, i1 noundef zeroext false, ptr noundef @.str.17, i32 noundef 356, ptr noundef @__func__.plugin_context_create)
  store ptr %58, ptr %12, align 8
  %59 = load ptr, ptr %8, align 8
  %60 = call ptr @xstrdup(ptr noundef %59)
  %61 = load ptr, ptr %12, align 8
  %62 = getelementptr inbounds nuw %struct.plugin_context_t, ptr %61, i32 0, i32 2
  store ptr %60, ptr %62, align 8
  %63 = load ptr, ptr %12, align 8
  %64 = getelementptr inbounds nuw %struct.plugin_context_t, ptr %63, i32 0, i32 0
  store ptr null, ptr %64, align 8
  %65 = load i64, ptr %11, align 8
  %66 = udiv i64 %65, 8
  %67 = trunc i64 %66 to i32
  store i32 %67, ptr %13, align 4
  %68 = load ptr, ptr %12, align 8
  %69 = getelementptr inbounds nuw %struct.plugin_context_t, ptr %68, i32 0, i32 2
  %70 = load ptr, ptr %69, align 8
  %71 = load i32, ptr %13, align 4
  %72 = load ptr, ptr %10, align 8
  %73 = load ptr, ptr %9, align 8
  %74 = call ptr @plugin_load_and_link(ptr noundef %70, i32 noundef %71, ptr noundef %72, ptr noundef %73)
  %75 = load ptr, ptr %12, align 8
  %76 = getelementptr inbounds nuw %struct.plugin_context_t, ptr %75, i32 0, i32 0
  store ptr %74, ptr %76, align 8
  %77 = load ptr, ptr %12, align 8
  %78 = getelementptr inbounds nuw %struct.plugin_context_t, ptr %77, i32 0, i32 0
  %79 = load ptr, ptr %78, align 8
  %80 = icmp ne ptr %79, null
  br i1 %80, label %81, label %83

81:                                               ; preds = %57
  %82 = load ptr, ptr %12, align 8
  store ptr %82, ptr %6, align 8
  store i32 1, ptr %14, align 4
  br label %152

83:                                               ; preds = %57
  %84 = call ptr @__errno_location() #9
  %85 = load i32, ptr %84, align 4
  %86 = icmp ne i32 %85, 8005
  br i1 %86, label %87, label %95

87:                                               ; preds = %83
  %88 = load ptr, ptr %12, align 8
  %89 = getelementptr inbounds nuw %struct.plugin_context_t, ptr %88, i32 0, i32 2
  %90 = load ptr, ptr %89, align 8
  %91 = call ptr @__errno_location() #9
  %92 = load i32, ptr %91, align 4
  %93 = call ptr @slurm_strerror(i32 noundef %92)
  %94 = call i32 (ptr, ...) @error(ptr noundef @.str.18, ptr noundef %90, ptr noundef %93)
  br label %149

95:                                               ; preds = %83
  %96 = load ptr, ptr %12, align 8
  %97 = getelementptr inbounds nuw %struct.plugin_context_t, ptr %96, i32 0, i32 2
  %98 = load ptr, ptr %97, align 8
  %99 = call i32 (ptr, ...) @error(ptr noundef @.str.19, ptr noundef %98)
  %100 = load ptr, ptr %12, align 8
  %101 = getelementptr inbounds nuw %struct.plugin_context_t, ptr %100, i32 0, i32 1
  %102 = load ptr, ptr %101, align 8
  %103 = icmp ne ptr %102, null
  br i1 %103, label %114, label %104

104:                                              ; preds = %95
  %105 = load ptr, ptr %7, align 8
  %106 = call ptr @plugrack_create(ptr noundef %105)
  %107 = load ptr, ptr %12, align 8
  %108 = getelementptr inbounds nuw %struct.plugin_context_t, ptr %107, i32 0, i32 1
  store ptr %106, ptr %108, align 8
  %109 = load ptr, ptr %12, align 8
  %110 = getelementptr inbounds nuw %struct.plugin_context_t, ptr %109, i32 0, i32 1
  %111 = load ptr, ptr %110, align 8
  %112 = load ptr, ptr getelementptr inbounds nuw (%struct.slurm_conf_t, ptr @slurm_conf, i32 0, i32 115), align 8
  %113 = call i32 @plugrack_read_dir(ptr noundef %111, ptr noundef %112)
  br label %114

114:                                              ; preds = %104, %95
  %115 = load ptr, ptr %12, align 8
  %116 = getelementptr inbounds nuw %struct.plugin_context_t, ptr %115, i32 0, i32 1
  %117 = load ptr, ptr %116, align 8
  %118 = load ptr, ptr %12, align 8
  %119 = getelementptr inbounds nuw %struct.plugin_context_t, ptr %118, i32 0, i32 2
  %120 = load ptr, ptr %119, align 8
  %121 = call ptr @plugrack_use_by_type(ptr noundef %117, ptr noundef %120)
  %122 = load ptr, ptr %12, align 8
  %123 = getelementptr inbounds nuw %struct.plugin_context_t, ptr %122, i32 0, i32 0
  store ptr %121, ptr %123, align 8
  %124 = load ptr, ptr %12, align 8
  %125 = getelementptr inbounds nuw %struct.plugin_context_t, ptr %124, i32 0, i32 0
  %126 = load ptr, ptr %125, align 8
  %127 = icmp eq ptr %126, null
  br i1 %127, label %128, label %134

128:                                              ; preds = %114
  %129 = load ptr, ptr %7, align 8
  %130 = load ptr, ptr %12, align 8
  %131 = getelementptr inbounds nuw %struct.plugin_context_t, ptr %130, i32 0, i32 2
  %132 = load ptr, ptr %131, align 8
  %133 = call i32 (ptr, ...) @error(ptr noundef @.str.20, ptr noundef %129, ptr noundef %132)
  br label %149

134:                                              ; preds = %114
  %135 = load ptr, ptr %12, align 8
  %136 = getelementptr inbounds nuw %struct.plugin_context_t, ptr %135, i32 0, i32 0
  %137 = load ptr, ptr %136, align 8
  %138 = load i32, ptr %13, align 4
  %139 = load ptr, ptr %10, align 8
  %140 = load ptr, ptr %9, align 8
  %141 = call i32 @plugin_get_syms(ptr noundef %137, i32 noundef %138, ptr noundef %139, ptr noundef %140)
  %142 = load i32, ptr %13, align 4
  %143 = icmp slt i32 %141, %142
  br i1 %143, label %144, label %147

144:                                              ; preds = %134
  %145 = load ptr, ptr %7, align 8
  %146 = call i32 (ptr, ...) @error(ptr noundef @.str.21, ptr noundef %145)
  br label %149

147:                                              ; preds = %134
  %148 = load ptr, ptr %12, align 8
  store ptr %148, ptr %6, align 8
  store i32 1, ptr %14, align 4
  br label %152

149:                                              ; preds = %144, %128, %87
  %150 = load ptr, ptr %12, align 8
  %151 = call i32 @plugin_context_destroy(ptr noundef %150)
  store ptr null, ptr %6, align 8
  store i32 1, ptr %14, align 4
  br label %152

152:                                              ; preds = %149, %147, %81, %51, %45, %41, %27
  call void @llvm.lifetime.end.p0(i64 4, ptr %13) #7
  call void @llvm.lifetime.end.p0(i64 8, ptr %12) #7
  %153 = load ptr, ptr %6, align 8
  ret ptr %153
}