; Function Attrs: nounwind uwtable
define dso_local ptr @plugin_context_create(ptr noundef %0, ptr noundef %1, ptr noundef writeonly captures(address_is_null) %2, ptr noundef readonly captures(address_is_null) %3, i64 noundef %4) local_unnamed_addr #0 {
  %6 = alloca ptr, align 8
  %.not = icmp eq ptr %1, null
  br i1 %.not, label %7, label %11

7:                                                ; preds = %5
  %8 = tail call i32 @get_log_level() #10
  %9 = icmp sgt i32 %8, 6
  br i1 %9, label %10, label %69

10:                                               ; preds = %7
  tail call void (i32, ptr, ...) @log_var(i32 noundef 7, ptr noundef nonnull @.str.13) #10
  br label %69

11:                                               ; preds = %5
  %.not43 = icmp eq ptr %0, null
  br i1 %.not43, label %12, label %16

12:                                               ; preds = %11
  %13 = tail call i32 @get_log_level() #10
  %14 = icmp sgt i32 %13, 6
  br i1 %14, label %15, label %69

15:                                               ; preds = %12
  tail call void (i32, ptr, ...) @log_var(i32 noundef 7, ptr noundef nonnull @.str.14) #10
  br label %69

16:                                               ; preds = %11
  %.not44 = icmp eq ptr %3, null
  br i1 %.not44, label %17, label %19

17:                                               ; preds = %16
  %18 = tail call i32 (ptr, ...) @error(ptr noundef nonnull @.str.15, ptr noundef nonnull %0) #10
  br label %69

19:                                               ; preds = %16
  %.not45 = icmp eq ptr %2, null
  br i1 %.not45, label %20, label %22

20:                                               ; preds = %19
  %21 = tail call i32 (ptr, ...) @error(ptr noundef nonnull @.str.16, ptr noundef nonnull %0) #10
  br label %69

22:                                               ; preds = %19
  %23 = tail call ptr @slurm_xcalloc(i64 noundef 1, i64 noundef 24, i1 noundef zeroext true, i1 noundef zeroext false, ptr noundef nonnull @.str.17, i32 noundef 356, ptr noundef nonnull @__func__.plugin_context_create) #10
  %24 = tail call ptr @xstrdup(ptr noundef nonnull %1) #10
  %25 = getelementptr inbounds nuw i8, ptr %23, i64 16
  store ptr %24, ptr %25, align 8
  store ptr null, ptr %23, align 8
  %26 = lshr i64 %4, 3
  %27 = trunc i64 %26 to i32
  %28 = tail call ptr @plugin_load_and_link(ptr noundef %24, i32 noundef %27, ptr noundef nonnull %3, ptr noundef nonnull %2)
  store ptr %28, ptr %23, align 8
  %.not46 = icmp eq ptr %28, null
  br i1 %.not46, label %29, label %69

29:                                               ; preds = %22
  %30 = tail call ptr @__errno_location() #12
  %31 = load i32, ptr %30, align 4
  %.not47 = icmp eq i32 %31, 8005
  %32 = load ptr, ptr %25, align 8
  br i1 %.not47, label %36, label %33

33:                                               ; preds = %29
  %34 = tail call ptr @slurm_strerror(i32 noundef %31) #10
  %35 = tail call i32 (ptr, ...) @error(ptr noundef nonnull @.str.18, ptr noundef %32, ptr noundef %34) #10
  br label %57

36:                                               ; preds = %29
  %37 = tail call i32 (ptr, ...) @error(ptr noundef nonnull @.str.19, ptr noundef %32) #10
  %38 = getelementptr inbounds nuw i8, ptr %23, i64 8
  %39 = load ptr, ptr %38, align 8
  %.not48 = icmp eq ptr %39, null
  br i1 %.not48, label %40, label %44

40:                                               ; preds = %36
  %41 = tail call ptr @plugrack_create(ptr noundef nonnull %0) #10
  store ptr %41, ptr %38, align 8
  %42 = load ptr, ptr getelementptr inbounds nuw (i8, ptr @slurm_conf, i64 776), align 8
  %43 = tail call i32 @plugrack_read_dir(ptr noundef %41, ptr noundef %42) #10
  %.pre = load ptr, ptr %38, align 8
  br label %44

44:                                               ; preds = %40, %36
  %45 = phi ptr [ %.pre, %40 ], [ %39, %36 ]
  %46 = load ptr, ptr %25, align 8
  %47 = tail call ptr @plugrack_use_by_type(ptr noundef %45, ptr noundef %46) #10
  store ptr %47, ptr %23, align 8
  %48 = icmp eq ptr %47, null
  br i1 %48, label %49, label %52

49:                                               ; preds = %44
  %50 = load ptr, ptr %25, align 8
  %51 = tail call i32 (ptr, ...) @error(ptr noundef nonnull @.str.20, ptr noundef nonnull %0, ptr noundef %50) #10
  br label %57

52:                                               ; preds = %44
  %53 = tail call i32 @plugin_get_syms(ptr noundef nonnull %47, i32 noundef %27, ptr noundef nonnull %3, ptr noundef nonnull %2)
  %54 = icmp slt i32 %53, %27
  br i1 %54, label %55, label %69

55:                                               ; preds = %52
  %56 = tail call i32 (ptr, ...) @error(ptr noundef nonnull @.str.21, ptr noundef nonnull %0) #10
  br label %57

57:                                               ; preds = %55, %49, %33
  call void @llvm.lifetime.start.p0(i64 8, ptr nonnull %6)
  store ptr %23, ptr %6, align 8
  %58 = getelementptr inbounds nuw i8, ptr %23, i64 8
  %59 = load ptr, ptr %58, align 8
  %.not.i = icmp eq ptr %59, null
  br i1 %.not.i, label %62, label %60

60:                                               ; preds = %57
  %61 = tail call i32 @plugrack_destroy(ptr noundef nonnull %59) #10
  br label %plugin_context_destroy.exit

62:                                               ; preds = %57
  %63 = load ptr, ptr %23, align 8
  %.not.i.i = icmp eq ptr %63, null
  br i1 %.not.i.i, label %plugin_context_destroy.exit, label %64

64:                                               ; preds = %62
  %65 = tail call ptr @dlsym(ptr noundef nonnull %63, ptr noundef nonnull @.str.10) #10
  %.not5.i.i = icmp eq ptr %65, null
  br i1 %.not5.i.i, label %67, label %66

66:                                               ; preds = %64
  tail call void %65() #10
  br label %67

67:                                               ; preds = %66, %64
  %68 = tail call i32 @dlclose(ptr noundef nonnull %63) #10
  br label %plugin_context_destroy.exit

plugin_context_destroy.exit:                      ; preds = %60, %62, %67
  tail call void @slurm_xfree(ptr noundef nonnull %25) #10
  call void @slurm_xfree(ptr noundef nonnull %6) #10
  call void @llvm.lifetime.end.p0(i64 8, ptr nonnull %6)
  br label %69

69:                                               ; preds = %52, %22, %12, %15, %7, %10, %plugin_context_destroy.exit, %20, %17
  %.0 = phi ptr [ null, %plugin_context_destroy.exit ], [ null, %20 ], [ null, %17 ], [ null, %10 ], [ null, %7 ], [ null, %15 ], [ null, %12 ], [ %23, %22 ], [ %23, %52 ]
  ret ptr %.0
}